target datalayout = "e-m:e-p270:32:32-p271:32:32-p272:64:64-i64:64-i128:128-f80:128-n8:16:32:64-S128"
target triple = "x86_64-pc-linux-gnu"

%struct.dlist_node = type { ptr, ptr }
%struct.CachedPlanSource = type { i32, ptr, ptr, i32, ptr, i32, ptr, ptr, i32, i8, ptr, ptr, ptr, ptr, ptr, ptr, ptr, i32, i8, i8, ptr, i8, i8, i8, i8, i32, %struct.dlist_node, double, double, i64, i64 }

@CurrentMemoryContext = external global ptr, align 8

; Function Attrs: nounwind uwtable
define dso_local ptr @CreateOneShotCachedPlan(ptr noundef %0, ptr noundef %1, i32 noundef %2) #0 {
  %4 = alloca ptr, align 8
  %5 = alloca ptr, align 8
  %6 = alloca i32, align 4
  %7 = alloca ptr, align 8
  store ptr %0, ptr %4, align 8
  store ptr %1, ptr %5, align 8
  store i32 %2, ptr %6, align 4
  call void @llvm.lifetime.start.p0(i64 8, ptr %7) #8
  %8 = call ptr @palloc0(i64 noundef 200)
  store ptr %8, ptr %7, align 8
  %9 = load ptr, ptr %7, align 8
  %10 = getelementptr inbounds nuw %struct.CachedPlanSource, ptr %9, i32 0, i32 0
  store i32 195726186, ptr %10, align 8
  %11 = load ptr, ptr %4, align 8
  %12 = load ptr, ptr %7, align 8
  %13 = getelementptr inbounds nuw %struct.CachedPlanSource, ptr %12, i32 0, i32 1
  store ptr %11, ptr %13, align 8
  %14 = load ptr, ptr %5, align 8
  %15 = load ptr, ptr %7, align 8
  %16 = getelementptr inbounds nuw %struct.CachedPlanSource, ptr %15, i32 0, i32 2
  store ptr %14, ptr %16, align 8
  %17 = load i32, ptr %6, align 4
  %18 = load ptr, ptr %7, align 8
  %19 = getelementptr inbounds nuw %struct.CachedPlanSource, ptr %18, i32 0, i32 3
  store i32 %17, ptr %19, align 8
  %20 = load ptr, ptr %7, align 8
  %21 = getelementptr inbounds nuw %struct.CachedPlanSource, ptr %20, i32 0, i32 4
  store ptr null, ptr %21, align 8
  %22 = load ptr, ptr %7, align 8
  %23 = getelementptr inbounds nuw %struct.CachedPlanSource, ptr %22, i32 0, i32 5
  store i32 0, ptr %23, align 8
  %24 = load ptr, ptr %7, align 8
  %25 = getelementptr inbounds nuw %struct.CachedPlanSource, ptr %24, i32 0, i32 6
  store ptr null, ptr %25, align 8
  %26 = load ptr, ptr %7, align 8
  %27 = getelementptr inbounds nuw %struct.CachedPlanSource, ptr %26, i32 0, i32 7
  store ptr null, ptr %27, align 8
  %28 = load ptr, ptr %7, align 8
  %29 = getelementptr inbounds nuw %struct.CachedPlanSource, ptr %28, i32 0, i32 8
  store i32 0, ptr %29, align 8
  %30 = load ptr, ptr %7, align 8
  %31 = getelementptr inbounds nuw %struct.CachedPlanSource, ptr %30, i32 0, i32 9
  store i8 0, ptr %31, align 4
  %32 = load ptr, ptr %7, align 8
  %33 = getelementptr inbounds nuw %struct.CachedPlanSource, ptr %32, i32 0, i32 10
  store ptr null, ptr %33, align 8
  %34 = load ptr, ptr @CurrentMemoryContext, align 8
  %35 = load ptr, ptr %7, align 8
  %36 = getelementptr inbounds nuw %struct.CachedPlanSource, ptr %35, i32 0, i32 11
  store ptr %34, ptr %36, align 8
  %37 = load ptr, ptr %7, align 8
  %38 = getelementptr inbounds nuw %struct.CachedPlanSource, ptr %37, i32 0, i32 12
  store ptr null, ptr %38, align 8
  %39 = load ptr, ptr %7, align 8
  %40 = getelementptr inbounds nuw %struct.CachedPlanSource, ptr %39, i32 0, i32 13
  store ptr null, ptr %40, align 8
  %41 = load ptr, ptr %7, align 8
  %42 = getelementptr inbounds nuw %struct.CachedPlanSource, ptr %41, i32 0, i32 14
  store ptr null, ptr %42, align 8
  %43 = load ptr, ptr %7, align 8
  %44 = getelementptr inbounds nuw %struct.CachedPlanSource, ptr %43, i32 0, i32 15
  store ptr null, ptr %44, align 8
  %45 = load ptr, ptr %7, align 8
  %46 = getelementptr inbounds nuw %struct.CachedPlanSource, ptr %45, i32 0, i32 16
  store ptr null, ptr %46, align 8
  %47 = load ptr, ptr %7, align 8
  %48 = getelementptr inbounds nuw %struct.CachedPlanSource, ptr %47, i32 0, i32 17
  store i32 0, ptr %48, align 8
  %49 = load ptr, ptr %7, align 8
  %50 = getelementptr inbounds nuw %struct.CachedPlanSource, ptr %49, i32 0, i32 18
  store i8 0, ptr %50, align 4
  %51 = load ptr, ptr %7, align 8
  %52 = getelementptr inbounds nuw %struct.CachedPlanSource, ptr %51, i32 0, i32 19
  store i8 0, ptr %52, align 1
  %53 = load ptr, ptr %7, align 8
  %54 = getelementptr inbounds nuw %struct.CachedPlanSource, ptr %53, i32 0, i32 20
  store ptr null, ptr %54, align 8
  %55 = load ptr, ptr %7, align 8
  %56 = getelementptr inbounds nuw %struct.CachedPlanSource, ptr %55, i32 0, i32 21
  store i8 1, ptr %56, align 8
  %57 = load ptr, ptr %7, align 8
  %58 = getelementptr inbounds nuw %struct.CachedPlanSource, ptr %57, i32 0, i32 22
  store i8 0, ptr %58, align 1
  %59 = load ptr, ptr %7, align 8
  %60 = getelementptr inbounds nuw %struct.CachedPlanSource, ptr %59, i32 0, i32 23
  store i8 0, ptr %60, align 2
  %61 = load ptr, ptr %7, align 8
  %62 = getelementptr inbounds nuw %struct.CachedPlanSource, ptr %61, i32 0, i32 24
  store i8 0, ptr %62, align 1
  %63 = load ptr, ptr %7, align 8
  %64 = getelementptr inbounds nuw %struct.CachedPlanSource, ptr %63, i32 0, i32 25
  store i32 0, ptr %64, align 4
  %65 = load ptr, ptr %7, align 8
  %66 = getelementptr inbounds nuw %struct.CachedPlanSource, ptr %65, i32 0, i32 27
  store double -1.000000e+00, ptr %66, align 8
  %67 = load ptr, ptr %7, align 8
  %68 = getelementptr inbounds nuw %struct.CachedPlanSource, ptr %67, i32 0, i32 28
  store double 0.000000e+00, ptr %68, align 8
  %69 = load ptr, ptr %7, align 8
  %70 = getelementptr inbounds nuw %struct.CachedPlanSource, ptr %69, i32 0, i32 30
  store i64 0, ptr %70, align 8
  %71 = load ptr, ptr %7, align 8
  %72 = getelementptr inbounds nuw %struct.CachedPlanSource, ptr %71, i32 0, i32 29
  store i64 0, ptr %72, align 8
  %73 = load ptr, ptr %7, align 8
  call void @llvm.lifetime.end.p0(i64 8, ptr %7) #8
  ret ptr %73
}