; Function Attrs: nounwind uwtable
define dso_local noundef ptr @CreateOneShotCachedPlan(ptr noundef %0, ptr noundef %1, i32 noundef %2) local_unnamed_addr #0 {
  %4 = tail call ptr @palloc0(i64 noundef 200) #9
  store i32 195726186, ptr %4, align 8
  %5 = getelementptr inbounds nuw i8, ptr %4, i64 8
  store ptr %0, ptr %5, align 8
  %6 = getelementptr inbounds nuw i8, ptr %4, i64 16
  store ptr %1, ptr %6, align 8
  %7 = getelementptr inbounds nuw i8, ptr %4, i64 24
  store i32 %2, ptr %7, align 8
  %8 = getelementptr inbounds nuw i8, ptr %4, i64 32
  store ptr null, ptr %8, align 8
  %9 = getelementptr inbounds nuw i8, ptr %4, i64 40
  store i32 0, ptr %9, align 8
  %10 = getelementptr inbounds nuw i8, ptr %4, i64 48
  %11 = getelementptr inbounds nuw i8, ptr %4, i64 72
  store ptr null, ptr %11, align 8
  tail call void @llvm.memset.p0.i64(ptr noundef nonnull align 8 dereferenceable(21) %10, i8 0, i64 21, i1 false)
  %12 = load ptr, ptr @CurrentMemoryContext, align 8
  %13 = getelementptr inbounds nuw i8, ptr %4, i64 80
  store ptr %12, ptr %13, align 8
  %14 = getelementptr inbounds nuw i8, ptr %4, i64 88
  %15 = getelementptr inbounds nuw i8, ptr %4, i64 136
  store ptr null, ptr %15, align 8
  %16 = getelementptr inbounds nuw i8, ptr %4, i64 144
  tail call void @llvm.memset.p0.i64(ptr noundef nonnull align 8 dereferenceable(46) %14, i8 0, i64 46, i1 false)
  store i8 1, ptr %16, align 8
  %17 = getelementptr inbounds nuw i8, ptr %4, i64 145
  %18 = getelementptr inbounds nuw i8, ptr %4, i64 168
  tail call void @llvm.memset.p0.i64(ptr noundef nonnull align 1 dereferenceable(7) %17, i8 0, i64 7, i1 false)
  store double -1.000000e+00, ptr %18, align 8
  %19 = getelementptr inbounds nuw i8, ptr %4, i64 176
  tail call void @llvm.memset.p0.i64(ptr noundef nonnull align 8 dereferenceable(24) %19, i8 0, i64 24, i1 false)
  ret ptr %4
}